target datalayout = "e-m:e-p270:32:32-p271:32:32-p272:64:64-i64:64-i128:128-f80:128-n8:16:32:64-S128"
target triple = "x86_64-pc-linux-gnu"

; Function Attrs: null_pointer_is_valid sspstrong uwtable
define ptr @get_unichar2_string(ptr noundef %0, ptr noundef %1, i32 noundef %2, ptr noundef %3) #0 {
  %5 = alloca ptr, align 8
  %6 = alloca ptr, align 8
  %7 = alloca i32, align 4
  %8 = alloca ptr, align 8
  %9 = alloca ptr, align 8
  %10 = alloca i8, align 1
  store ptr %0, ptr %5, align 8
  store ptr %1, ptr %6, align 8
  store i32 %2, ptr %7, align 4
  store ptr %3, ptr %8, align 8
  call void @llvm.lifetime.start.p0(i64 8, ptr %9) #8
  %11 = load ptr, ptr %5, align 8
  %12 = load i32, ptr %7, align 4
  %13 = add i32 %12, 1
  %14 = sext i32 %13 to i64
  %15 = call noalias ptr @wmem_strbuf_new_sized(ptr noundef %11, i64 noundef %14)
  store ptr %15, ptr %9, align 8
  br label %16

16:                                               ; preds = %38, %4
  %17 = load i32, ptr %7, align 4
  %18 = icmp sgt i32 %17, 0
  br i1 %18, label %19, label %43

19:                                               ; preds = %16
  call void @llvm.lifetime.start.p0(i64 1, ptr %10) #8
  %20 = load ptr, ptr %6, align 8
  %21 = load i8, ptr %20, align 1
  store i8 %21, ptr %10, align 1
  %22 = load i8, ptr %10, align 1
  %23 = zext i8 %22 to i32
  %24 = icmp slt i32 %23, 128
  br i1 %24, label %25, label %28

25:                                               ; preds = %19
  %26 = load ptr, ptr %9, align 8
  %27 = load i8, ptr %10, align 1
  call void @wmem_strbuf_append_c(ptr noundef %26, i8 noundef signext %27)
  br label %38

28:                                               ; preds = %19
  %29 = load ptr, ptr %9, align 8
  %30 = load ptr, ptr %8, align 8
  %31 = load i8, ptr %10, align 1
  %32 = zext i8 %31 to i32
  %33 = sub i32 %32, 128
  %34 = sext i32 %33 to i64
  %35 = getelementptr i16, ptr %30, i64 %34
  %36 = load i16, ptr %35, align 2
  %37 = zext i16 %36 to i32
  call void @wmem_strbuf_append_unichar(ptr noundef %29, i32 noundef %37)
  br label %38

38:                                               ; preds = %28, %25
  %39 = load ptr, ptr %6, align 8
  %40 = getelementptr i8, ptr %39, i32 1
  store ptr %40, ptr %6, align 8
  %41 = load i32, ptr %7, align 4
  %42 = add i32 %41, -1
  store i32 %42, ptr %7, align 4
  call void @llvm.lifetime.end.p0(i64 1, ptr %10) #8
  br label %16, !llvm.loop !10

43:                                               ; preds = %16
  %44 = load ptr, ptr %9, align 8
  %45 = call ptr @wmem_strbuf_finalize(ptr noundef %44)
  call void @llvm.lifetime.end.p0(i64 8, ptr %9) #8
  ret ptr %45
}