; Function Attrs: null_pointer_is_valid sspstrong uwtable
define ptr @get_unichar2_string(ptr noundef %0, ptr noundef readonly captures(none) %1, i32 noundef %2, ptr noundef readonly captures(none) %3) local_unnamed_addr #0 {
  %5 = add i32 %2, 1
  %6 = sext i32 %5 to i64
  %7 = tail call noalias ptr @wmem_strbuf_new_sized(ptr noundef %0, i64 noundef %6)
  %8 = icmp sgt i32 %2, 0
  br i1 %8, label %.lr.ph, label %._crit_edge

.lr.ph:                                           ; preds = %4, %18
  %.015 = phi ptr [ %19, %18 ], [ %1, %4 ]
  %.01214 = phi i32 [ %20, %18 ], [ %2, %4 ]
  %9 = load i8, ptr %.015, align 1
  %10 = icmp sgt i8 %9, -1
  br i1 %10, label %11, label %12

11:                                               ; preds = %.lr.ph
  tail call void @wmem_strbuf_append_c(ptr noundef %7, i8 noundef signext %9)
  br label %18

12:                                               ; preds = %.lr.ph
  %13 = and i8 %9, 127
  %14 = zext nneg i8 %13 to i64
  %15 = getelementptr i16, ptr %3, i64 %14
  %16 = load i16, ptr %15, align 2
  %17 = zext i16 %16 to i32
  tail call void @wmem_strbuf_append_unichar(ptr noundef %7, i32 noundef %17)
  br label %18

18:                                               ; preds = %12, %11
  %19 = getelementptr i8, ptr %.015, i64 1
  %20 = add nsw i32 %.01214, -1
  %21 = icmp sgt i32 %.01214, 1
  br i1 %21, label %.lr.ph, label %._crit_edge, !llvm.loop !10

._crit_edge:                                      ; preds = %18, %4
  %22 = tail call ptr @wmem_strbuf_finalize(ptr noundef %7)
  ret ptr %22
}